target datalayout = "e-m:e-p270:32:32-p271:32:32-p272:64:64-i64:64-i128:128-f80:128-n8:16:32:64-S128"
target triple = "x86_64-pc-linux-gnu"

%struct.JNINativeInterface_ = type { ptr, ptr, ptr, ptr, ptr, ptr, ptr, ptr, ptr, ptr, ptr, ptr, ptr, ptr, ptr, ptr, ptr, ptr, ptr, ptr, ptr, ptr, ptr, ptr, ptr, ptr, ptr, ptr, ptr, ptr, ptr, ptr, ptr, ptr, ptr, ptr, ptr, ptr, ptr, ptr, ptr, ptr, ptr, ptr, ptr, ptr, ptr, ptr, ptr, ptr, ptr, ptr, ptr, ptr, ptr, ptr, ptr, ptr, ptr, ptr, ptr, ptr, ptr, ptr, ptr, ptr, ptr, ptr, ptr, ptr, ptr, ptr, ptr, ptr, ptr, ptr, ptr, ptr, ptr, ptr, ptr, ptr, ptr, ptr, ptr, ptr, ptr, ptr, ptr, ptr, ptr, ptr, ptr, ptr, ptr, ptr, ptr, ptr, ptr, ptr, ptr, ptr, ptr, ptr, ptr, ptr, ptr, ptr, ptr, ptr, ptr, ptr, ptr, ptr, ptr, ptr, ptr, ptr, ptr, ptr, ptr, ptr, ptr, ptr, ptr, ptr, ptr, ptr, ptr, ptr, ptr, ptr, ptr, ptr, ptr, ptr, ptr, ptr, ptr, ptr, ptr, ptr, ptr, ptr, ptr, ptr, ptr, ptr, ptr, ptr, ptr, ptr, ptr, ptr, ptr, ptr, ptr, ptr, ptr, ptr, ptr, ptr, ptr, ptr, ptr, ptr, ptr, ptr, ptr, ptr, ptr, ptr, ptr, ptr, ptr, ptr, ptr, ptr, ptr, ptr, ptr, ptr, ptr, ptr, ptr, ptr, ptr, ptr, ptr, ptr, ptr, ptr, ptr, ptr, ptr, ptr, ptr, ptr, ptr, ptr, ptr, ptr, ptr, ptr, ptr, ptr, ptr, ptr, ptr, ptr, ptr, ptr, ptr, ptr, ptr, ptr, ptr, ptr, ptr, ptr, ptr, ptr, ptr, ptr, ptr, ptr, ptr, ptr, ptr, ptr, ptr, ptr, ptr, ptr, ptr }
%struct.gss_channel_bindings_struct = type { i32, %struct.gss_buffer_desc_struct, i32, %struct.gss_buffer_desc_struct, %struct.gss_buffer_desc_struct }
%struct.gss_buffer_desc_struct = type { i64, ptr }

@tlsCBCl = internal global ptr null, align 8
@MID_ChannelBinding_getInitiatorAddr = external global ptr, align 8
@MID_InetAddress_getAddr = external global ptr, align 8
@MID_ChannelBinding_getAcceptorAddr = external global ptr, align 8
@MID_ChannelBinding_getAppData = external global ptr, align 8

; Function Attrs: nounwind uwtable
define hidden void @deleteGSSCB(ptr noundef %0) #0 {
  %2 = alloca ptr, align 8
  store ptr %0, ptr %2, align 8
  %3 = load ptr, ptr %2, align 8
  %4 = icmp eq ptr %3, null
  br i1 %4, label %5, label %6

5:                                                ; preds = %1
  br label %43

6:                                                ; preds = %1
  %7 = load ptr, ptr %2, align 8
  %8 = getelementptr inbounds %struct.gss_channel_bindings_struct, ptr %7, i32 0, i32 0
  %9 = load i32, ptr %8, align 8
  %10 = icmp ne i32 %9, 255
  br i1 %10, label %11, label %19

11:                                               ; preds = %6
  %12 = load ptr, ptr %2, align 8
  %13 = getelementptr inbounds %struct.gss_channel_bindings_struct, ptr %12, i32 0, i32 0
  %14 = load i32, ptr %13, align 8
  %15 = icmp ne i32 %14, 0
  br i1 %15, label %16, label %19

16:                                               ; preds = %11
  %17 = load ptr, ptr %2, align 8
  %18 = getelementptr inbounds %struct.gss_channel_bindings_struct, ptr %17, i32 0, i32 1
  call void @resetGSSBuffer(ptr noundef %18)
  br label %19

19:                                               ; preds = %16, %11, %6
  %20 = load ptr, ptr %2, align 8
  %21 = getelementptr inbounds %struct.gss_channel_bindings_struct, ptr %20, i32 0, i32 2
  %22 = load i32, ptr %21, align 8
  %23 = icmp ne i32 %22, 255
  br i1 %23, label %24, label %32

24:                                               ; preds = %19
  %25 = load ptr, ptr %2, align 8
  %26 = getelementptr inbounds %struct.gss_channel_bindings_struct, ptr %25, i32 0, i32 2
  %27 = load i32, ptr %26, align 8
  %28 = icmp ne i32 %27, 0
  br i1 %28, label %29, label %32

29:                                               ; preds = %24
  %30 = load ptr, ptr %2, align 8
  %31 = getelementptr inbounds %struct.gss_channel_bindings_struct, ptr %30, i32 0, i32 3
  call void @resetGSSBuffer(ptr noundef %31)
  br label %32

32:                                               ; preds = %29, %24, %19
  %33 = load ptr, ptr %2, align 8
  %34 = getelementptr inbounds %struct.gss_channel_bindings_struct, ptr %33, i32 0, i32 4
  %35 = getelementptr inbounds %struct.gss_buffer_desc_struct, ptr %34, i32 0, i32 0
  %36 = load i64, ptr %35, align 8
  %37 = icmp ne i64 %36, 0
  br i1 %37, label %38, label %41

38:                                               ; preds = %32
  %39 = load ptr, ptr %2, align 8
  %40 = getelementptr inbounds %struct.gss_channel_bindings_struct, ptr %39, i32 0, i32 4
  call void @resetGSSBuffer(ptr noundef %40)
  br label %41

41:                                               ; preds = %38, %32
  %42 = load ptr, ptr %2, align 8
  call void @free(ptr noundef %42) #5
  br label %43

43:                                               ; preds = %41, %5
  ret void
}

; Function Attrs: nounwind uwtable
define hidden ptr @newGSSCB(ptr noundef %0, ptr noundef %1) #0 {
  %3 = alloca ptr, align 8
  %4 = alloca ptr, align 8
  %5 = alloca ptr, align 8
  %6 = alloca ptr, align 8
  %7 = alloca ptr, align 8
  %8 = alloca ptr, align 8
  store ptr %0, ptr %4, align 8
  store ptr %1, ptr %5, align 8
  %9 = load ptr, ptr %5, align 8
  %10 = icmp eq ptr %9, null
  br i1 %10, label %11, label %12

11:                                               ; preds = %2
  store ptr null, ptr %3, align 8
  br label %178

12:                                               ; preds = %2
  %13 = call noalias ptr @calloc(i64 noundef 1, i64 noundef 64) #7
  store ptr %13, ptr %6, align 8
  %14 = load ptr, ptr %6, align 8
  %15 = icmp eq ptr %14, null
  br i1 %15, label %16, label %18

16:                                               ; preds = %12
  %17 = load ptr, ptr %4, align 8
  call void @gssThrowOutOfMemoryError(ptr noundef %17, ptr noundef null)
  store ptr null, ptr %3, align 8
  br label %178

18:                                               ; preds = %12
  %19 = load ptr, ptr %4, align 8
  %20 = load ptr, ptr %19, align 8
  %21 = getelementptr inbounds %struct.JNINativeInterface_, ptr %20, i32 0, i32 32
  %22 = load ptr, ptr %21, align 8
  %23 = load ptr, ptr %4, align 8
  %24 = load ptr, ptr %5, align 8
  %25 = load ptr, ptr @tlsCBCl, align 8
  %26 = call zeroext i8 %22(ptr noundef %23, ptr noundef %24, ptr noundef %25)
  %27 = icmp ne i8 %26, 0
  br i1 %27, label %28, label %33

28:                                               ; preds = %18
  %29 = load ptr, ptr %6, align 8
  %30 = getelementptr inbounds %struct.gss_channel_bindings_struct, ptr %29, i32 0, i32 0
  store i32 0, ptr %30, align 8
  %31 = load ptr, ptr %6, align 8
  %32 = getelementptr inbounds %struct.gss_channel_bindings_struct, ptr %31, i32 0, i32 2
  store i32 0, ptr %32, align 8
  br label %38

33:                                               ; preds = %18
  %34 = load ptr, ptr %6, align 8
  %35 = getelementptr inbounds %struct.gss_channel_bindings_struct, ptr %34, i32 0, i32 0
  store i32 255, ptr %35, align 8
  %36 = load ptr, ptr %6, align 8
  %37 = getelementptr inbounds %struct.gss_channel_bindings_struct, ptr %36, i32 0, i32 2
  store i32 255, ptr %37, align 8
  br label %38

38:                                               ; preds = %33, %28
  %39 = load ptr, ptr %4, align 8
  %40 = load ptr, ptr %39, align 8
  %41 = getelementptr inbounds %struct.JNINativeInterface_, ptr %40, i32 0, i32 34
  %42 = load ptr, ptr %41, align 8
  %43 = load ptr, ptr %4, align 8
  %44 = load ptr, ptr %5, align 8
  %45 = load ptr, ptr @MID_ChannelBinding_getInitiatorAddr, align 8
  %46 = call ptr (ptr, ptr, ptr, ...) %42(ptr noundef %43, ptr noundef %44, ptr noundef %45)
  store ptr %46, ptr %7, align 8
  %47 = load ptr, ptr %4, align 8
  %48 = load ptr, ptr %47, align 8
  %49 = getelementptr inbounds %struct.JNINativeInterface_, ptr %48, i32 0, i32 228
  %50 = load ptr, ptr %49, align 8
  %51 = load ptr, ptr %4, align 8
  %52 = call zeroext i8 %50(ptr noundef %51)
  %53 = icmp ne i8 %52, 0
  br i1 %53, label %54, label %55

54:                                               ; preds = %38
  br label %176

55:                                               ; preds = %38
  %56 = load ptr, ptr %7, align 8
  %57 = icmp ne ptr %56, null
  br i1 %57, label %58, label %91

58:                                               ; preds = %55
  %59 = load ptr, ptr %4, align 8
  %60 = load ptr, ptr %59, align 8
  %61 = getelementptr inbounds %struct.JNINativeInterface_, ptr %60, i32 0, i32 34
  %62 = load ptr, ptr %61, align 8
  %63 = load ptr, ptr %4, align 8
  %64 = load ptr, ptr %7, align 8
  %65 = load ptr, ptr @MID_InetAddress_getAddr, align 8
  %66 = call ptr (ptr, ptr, ptr, ...) %62(ptr noundef %63, ptr noundef %64, ptr noundef %65)
  store ptr %66, ptr %8, align 8
  %67 = load ptr, ptr %4, align 8
  %68 = load ptr, ptr %67, align 8
  %69 = getelementptr inbounds %struct.JNINativeInterface_, ptr %68, i32 0, i32 228
  %70 = load ptr, ptr %69, align 8
  %71 = load ptr, ptr %4, align 8
  %72 = call zeroext i8 %70(ptr noundef %71)
  %73 = icmp ne i8 %72, 0
  br i1 %73, label %74, label %75

74:                                               ; preds = %58
  br label %176

75:                                               ; preds = %58
  %76 = load ptr, ptr %6, align 8
  %77 = getelementptr inbounds %struct.gss_channel_bindings_struct, ptr %76, i32 0, i32 0
  store i32 2, ptr %77, align 8
  %78 = load ptr, ptr %4, align 8
  %79 = load ptr, ptr %8, align 8
  %80 = load ptr, ptr %6, align 8
  %81 = getelementptr inbounds %struct.gss_channel_bindings_struct, ptr %80, i32 0, i32 1
  call void @initGSSBuffer(ptr noundef %78, ptr noundef %79, ptr noundef %81)
  %82 = load ptr, ptr %4, align 8
  %83 = load ptr, ptr %82, align 8
  %84 = getelementptr inbounds %struct.JNINativeInterface_, ptr %83, i32 0, i32 228
  %85 = load ptr, ptr %84, align 8
  %86 = load ptr, ptr %4, align 8
  %87 = call zeroext i8 %85(ptr noundef %86)
  %88 = icmp ne i8 %87, 0
  br i1 %88, label %89, label %90

89:                                               ; preds = %75
  br label %176

90:                                               ; preds = %75
  br label %91

91:                                               ; preds = %90, %55
  %92 = load ptr, ptr %4, align 8
  %93 = load ptr, ptr %92, align 8
  %94 = getelementptr inbounds %struct.JNINativeInterface_, ptr %93, i32 0, i32 34
  %95 = load ptr, ptr %94, align 8
  %96 = load ptr, ptr %4, align 8
  %97 = load ptr, ptr %5, align 8
  %98 = load ptr, ptr @MID_ChannelBinding_getAcceptorAddr, align 8
  %99 = call ptr (ptr, ptr, ptr, ...) %95(ptr noundef %96, ptr noundef %97, ptr noundef %98)
  store ptr %99, ptr %7, align 8
  %100 = load ptr, ptr %4, align 8
  %101 = load ptr, ptr %100, align 8
  %102 = getelementptr inbounds %struct.JNINativeInterface_, ptr %101, i32 0, i32 228
  %103 = load ptr, ptr %102, align 8
  %104 = load ptr, ptr %4, align 8
  %105 = call zeroext i8 %103(ptr noundef %104)
  %106 = icmp ne i8 %105, 0
  br i1 %106, label %107, label %108

107:                                              ; preds = %91
  br label %176

108:                                              ; preds = %91
  %109 = load ptr, ptr %7, align 8
  %110 = icmp ne ptr %109, null
  br i1 %110, label %111, label %144

111:                                              ; preds = %108
  %112 = load ptr, ptr %4, align 8
  %113 = load ptr, ptr %112, align 8
  %114 = getelementptr inbounds %struct.JNINativeInterface_, ptr %113, i32 0, i32 34
  %115 = load ptr, ptr %114, align 8
  %116 = load ptr, ptr %4, align 8
  %117 = load ptr, ptr %7, align 8
  %118 = load ptr, ptr @MID_InetAddress_getAddr, align 8
  %119 = call ptr (ptr, ptr, ptr, ...) %115(ptr noundef %116, ptr noundef %117, ptr noundef %118)
  store ptr %119, ptr %8, align 8
  %120 = load ptr, ptr %4, align 8
  %121 = load ptr, ptr %120, align 8
  %122 = getelementptr inbounds %struct.JNINativeInterface_, ptr %121, i32 0, i32 228
  %123 = load ptr, ptr %122, align 8
  %124 = load ptr, ptr %4, align 8
  %125 = call zeroext i8 %123(ptr noundef %124)
  %126 = icmp ne i8 %125, 0
  br i1 %126, label %127, label %128

127:                                              ; preds = %111
  br label %176

128:                                              ; preds = %111
  %129 = load ptr, ptr %6, align 8
  %130 = getelementptr inbounds %struct.gss_channel_bindings_struct, ptr %129, i32 0, i32 2
  store i32 2, ptr %130, align 8
  %131 = load ptr, ptr %4, align 8
  %132 = load ptr, ptr %8, align 8
  %133 = load ptr, ptr %6, align 8
  %134 = getelementptr inbounds %struct.gss_channel_bindings_struct, ptr %133, i32 0, i32 3
  call void @initGSSBuffer(ptr noundef %131, ptr noundef %132, ptr noundef %134)
  %135 = load ptr, ptr %4, align 8
  %136 = load ptr, ptr %135, align 8
  %137 = getelementptr inbounds %struct.JNINativeInterface_, ptr %136, i32 0, i32 228
  %138 = load ptr, ptr %137, align 8
  %139 = load ptr, ptr %4, align 8
  %140 = call zeroext i8 %138(ptr noundef %139)
  %141 = icmp ne i8 %140, 0
  br i1 %141, label %142, label %143

142:                                              ; preds = %128
  br label %176

143:                                              ; preds = %128
  br label %144

144:                                              ; preds = %143, %108
  %145 = load ptr, ptr %4, align 8
  %146 = load ptr, ptr %145, align 8
  %147 = getelementptr inbounds %struct.JNINativeInterface_, ptr %146, i32 0, i32 34
  %148 = load ptr, ptr %147, align 8
  %149 = load ptr, ptr %4, align 8
  %150 = load ptr, ptr %5, align 8
  %151 = load ptr, ptr @MID_ChannelBinding_getAppData, align 8
  %152 = call ptr (ptr, ptr, ptr, ...) %148(ptr noundef %149, ptr noundef %150, ptr noundef %151)
  store ptr %152, ptr %8, align 8
  %153 = load ptr, ptr %4, align 8
  %154 = load ptr, ptr %153, align 8
  %155 = getelementptr inbounds %struct.JNINativeInterface_, ptr %154, i32 0, i32 228
  %156 = load ptr, ptr %155, align 8
  %157 = load ptr, ptr %4, align 8
  %158 = call zeroext i8 %156(ptr noundef %157)
  %159 = icmp ne i8 %158, 0
  br i1 %159, label %160, label %161

160:                                              ; preds = %144
  br label %176

161:                                              ; preds = %144
  %162 = load ptr, ptr %4, align 8
  %163 = load ptr, ptr %8, align 8
  %164 = load ptr, ptr %6, align 8
  %165 = getelementptr inbounds %struct.gss_channel_bindings_struct, ptr %164, i32 0, i32 4
  call void @initGSSBuffer(ptr noundef %162, ptr noundef %163, ptr noundef %165)
  %166 = load ptr, ptr %4, align 8
  %167 = load ptr, ptr %166, align 8
  %168 = getelementptr inbounds %struct.JNINativeInterface_, ptr %167, i32 0, i32 228
  %169 = load ptr, ptr %168, align 8
  %170 = load ptr, ptr %4, align 8
  %171 = call zeroext i8 %169(ptr noundef %170)
  %172 = icmp ne i8 %171, 0
  br i1 %172, label %173, label %174

173:                                              ; preds = %161
  br label %176

174:                                              ; preds = %161
  %175 = load ptr, ptr %6, align 8
  store ptr %175, ptr %3, align 8
  br label %178

176:                                              ; preds = %173, %160, %142, %127, %107, %89, %74, %54
  %177 = load ptr, ptr %6, align 8
  call void @deleteGSSCB(ptr noundef %177)
  store ptr null, ptr %3, align 8
  br label %178

178:                                              ; preds = %176, %174, %16, %11
  %179 = load ptr, ptr %3, align 8
  ret ptr %179
}