; Function Attrs: nounwind uwtable
define hidden noundef ptr @newGSSCB(ptr noundef %0, ptr noundef %1) local_unnamed_addr #0 {
  %3 = icmp eq ptr %1, null
  br i1 %3, label %96, label %4

4:                                                ; preds = %2
  %5 = tail call noalias dereferenceable_or_null(64) ptr @calloc(i64 noundef 1, i64 noundef 64) #10
  %6 = icmp eq ptr %5, null
  br i1 %6, label %7, label %8

7:                                                ; preds = %4
  tail call void @gssThrowOutOfMemoryError(ptr noundef %0, ptr noundef null) #9
  br label %96

8:                                                ; preds = %4
  %9 = load ptr, ptr %0, align 8
  %10 = getelementptr inbounds i8, ptr %9, i64 256
  %11 = load ptr, ptr %10, align 8
  %12 = load ptr, ptr @tlsCBCl, align 8
  %13 = tail call zeroext i8 %11(ptr noundef nonnull %0, ptr noundef nonnull %1, ptr noundef %12) #9
  %.not = icmp eq i8 %13, 0
  %spec.select = select i1 %.not, i32 255, i32 0
  store i32 %spec.select, ptr %5, align 8
  %14 = getelementptr inbounds i8, ptr %5, i64 24
  store i32 %spec.select, ptr %14, align 8
  %15 = load ptr, ptr %0, align 8
  %16 = getelementptr inbounds i8, ptr %15, i64 272
  %17 = load ptr, ptr %16, align 8
  %18 = load ptr, ptr @MID_ChannelBinding_getInitiatorAddr, align 8
  %19 = tail call ptr (ptr, ptr, ptr, ...) %17(ptr noundef nonnull %0, ptr noundef nonnull %1, ptr noundef %18) #9
  %20 = load ptr, ptr %0, align 8
  %21 = getelementptr inbounds i8, ptr %20, i64 1824
  %22 = load ptr, ptr %21, align 8
  %23 = tail call zeroext i8 %22(ptr noundef nonnull %0) #9
  %.not61 = icmp eq i8 %23, 0
  br i1 %.not61, label %24, label %84

24:                                               ; preds = %8
  %.not62 = icmp eq ptr %19, null
  br i1 %.not62, label %41, label %25

25:                                               ; preds = %24
  %26 = load ptr, ptr %0, align 8
  %27 = getelementptr inbounds i8, ptr %26, i64 272
  %28 = load ptr, ptr %27, align 8
  %29 = load ptr, ptr @MID_InetAddress_getAddr, align 8
  %30 = tail call ptr (ptr, ptr, ptr, ...) %28(ptr noundef nonnull %0, ptr noundef nonnull %19, ptr noundef %29) #9
  %31 = load ptr, ptr %0, align 8
  %32 = getelementptr inbounds i8, ptr %31, i64 1824
  %33 = load ptr, ptr %32, align 8
  %34 = tail call zeroext i8 %33(ptr noundef nonnull %0) #9
  %.not63 = icmp eq i8 %34, 0
  br i1 %.not63, label %35, label %84

35:                                               ; preds = %25
  store i32 2, ptr %5, align 8
  %36 = getelementptr inbounds i8, ptr %5, i64 8
  tail call void @initGSSBuffer(ptr noundef nonnull %0, ptr noundef %30, ptr noundef nonnull %36) #9
  %37 = load ptr, ptr %0, align 8
  %38 = getelementptr inbounds i8, ptr %37, i64 1824
  %39 = load ptr, ptr %38, align 8
  %40 = tail call zeroext i8 %39(ptr noundef nonnull %0) #9
  %.not64 = icmp eq i8 %40, 0
  br i1 %.not64, label %41, label %84

41:                                               ; preds = %35, %24
  %42 = load ptr, ptr %0, align 8
  %43 = getelementptr inbounds i8, ptr %42, i64 272
  %44 = load ptr, ptr %43, align 8
  %45 = load ptr, ptr @MID_ChannelBinding_getAcceptorAddr, align 8
  %46 = tail call ptr (ptr, ptr, ptr, ...) %44(ptr noundef nonnull %0, ptr noundef nonnull %1, ptr noundef %45) #9
  %47 = load ptr, ptr %0, align 8
  %48 = getelementptr inbounds i8, ptr %47, i64 1824
  %49 = load ptr, ptr %48, align 8
  %50 = tail call zeroext i8 %49(ptr noundef nonnull %0) #9
  %.not65 = icmp eq i8 %50, 0
  br i1 %.not65, label %51, label %84

51:                                               ; preds = %41
  %.not66 = icmp eq ptr %46, null
  br i1 %.not66, label %68, label %52

52:                                               ; preds = %51
  %53 = load ptr, ptr %0, align 8
  %54 = getelementptr inbounds i8, ptr %53, i64 272
  %55 = load ptr, ptr %54, align 8
  %56 = load ptr, ptr @MID_InetAddress_getAddr, align 8
  %57 = tail call ptr (ptr, ptr, ptr, ...) %55(ptr noundef nonnull %0, ptr noundef nonnull %46, ptr noundef %56) #9
  %58 = load ptr, ptr %0, align 8
  %59 = getelementptr inbounds i8, ptr %58, i64 1824
  %60 = load ptr, ptr %59, align 8
  %61 = tail call zeroext i8 %60(ptr noundef nonnull %0) #9
  %.not67 = icmp eq i8 %61, 0
  br i1 %.not67, label %62, label %84

62:                                               ; preds = %52
  store i32 2, ptr %14, align 8
  %63 = getelementptr inbounds i8, ptr %5, i64 32
  tail call void @initGSSBuffer(ptr noundef nonnull %0, ptr noundef %57, ptr noundef nonnull %63) #9
  %64 = load ptr, ptr %0, align 8
  %65 = getelementptr inbounds i8, ptr %64, i64 1824
  %66 = load ptr, ptr %65, align 8
  %67 = tail call zeroext i8 %66(ptr noundef nonnull %0) #9
  %.not68 = icmp eq i8 %67, 0
  br i1 %.not68, label %68, label %84

68:                                               ; preds = %62, %51
  %69 = load ptr, ptr %0, align 8
  %70 = getelementptr inbounds i8, ptr %69, i64 272
  %71 = load ptr, ptr %70, align 8
  %72 = load ptr, ptr @MID_ChannelBinding_getAppData, align 8
  %73 = tail call ptr (ptr, ptr, ptr, ...) %71(ptr noundef nonnull %0, ptr noundef nonnull %1, ptr noundef %72) #9
  %74 = load ptr, ptr %0, align 8
  %75 = getelementptr inbounds i8, ptr %74, i64 1824
  %76 = load ptr, ptr %75, align 8
  %77 = tail call zeroext i8 %76(ptr noundef nonnull %0) #9
  %.not69 = icmp eq i8 %77, 0
  br i1 %.not69, label %78, label %84

78:                                               ; preds = %68
  %79 = getelementptr inbounds i8, ptr %5, i64 48
  tail call void @initGSSBuffer(ptr noundef nonnull %0, ptr noundef %73, ptr noundef nonnull %79) #9
  %80 = load ptr, ptr %0, align 8
  %81 = getelementptr inbounds i8, ptr %80, i64 1824
  %82 = load ptr, ptr %81, align 8
  %83 = tail call zeroext i8 %82(ptr noundef nonnull %0) #9
  %.not70 = icmp eq i8 %83, 0
  br i1 %.not70, label %96, label %84

84:                                               ; preds = %8, %25, %35, %41, %52, %62, %68, %78
  %85 = load i32, ptr %5, align 8
  switch i32 %85, label %86 [
    i32 255, label %88
    i32 0, label %88
  ]

86:                                               ; preds = %84
  %87 = getelementptr inbounds i8, ptr %5, i64 8
  tail call void @resetGSSBuffer(ptr noundef nonnull %87) #9
  br label %88

88:                                               ; preds = %86, %84, %84
  %89 = load i32, ptr %14, align 8
  switch i32 %89, label %90 [
    i32 255, label %92
    i32 0, label %92
  ]

90:                                               ; preds = %88
  %91 = getelementptr inbounds i8, ptr %5, i64 32
  tail call void @resetGSSBuffer(ptr noundef nonnull %91) #9
  br label %92

92:                                               ; preds = %90, %88, %88
  %93 = getelementptr inbounds i8, ptr %5, i64 48
  %94 = load i64, ptr %93, align 8
  %.not15.i = icmp eq i64 %94, 0
  br i1 %.not15.i, label %deleteGSSCB.exit, label %95

95:                                               ; preds = %92
  tail call void @resetGSSBuffer(ptr noundef nonnull %93) #9
  br label %deleteGSSCB.exit

deleteGSSCB.exit:                                 ; preds = %92, %95
  tail call void @free(ptr noundef nonnull %5) #9
  br label %96

96:                                               ; preds = %78, %2, %deleteGSSCB.exit, %7
  %.0 = phi ptr [ null, %7 ], [ null, %deleteGSSCB.exit ], [ null, %2 ], [ %5, %78 ]
  ret ptr %.0
}